target datalayout = "e-m:e-p270:32:32-p271:32:32-p272:64:64-i64:64-i128:128-f80:128-n8:16:32:64-S128"
target triple = "x86_64-pc-linux-gnu"

%"class.arrow_vendored::double_conversion::Bignum" = type { i16, i16, [128 x i32] }

; Function Attrs: mustprogress nounwind uwtable
define linkonce_odr void @_ZN14arrow_vendored17double_conversion6Bignum14EnsureCapacityEi(i32 noundef %0) #0 comdat align 2 {
  %2 = alloca i32, align 4
  store i32 %0, ptr %2, align 4, !tbaa !8
  %3 = load i32, ptr %2, align 4, !tbaa !8
  %4 = icmp sgt i32 %3, 128
  br i1 %4, label %5, label %6

5:                                                ; preds = %1
  call void @abort() #7
  unreachable

6:                                                ; preds = %1
  ret void
}

; Function Attrs: mustprogress nounwind uwtable
define noundef nonnull align 4 dereferenceable(4) ptr @_ZN14arrow_vendored17double_conversion6Bignum8RawBigitEi(ptr noundef nonnull align 4 dereferenceable(516) %0, i32 noundef %1) #0 align 2 {
  %3 = alloca ptr, align 8
  %4 = alloca i32, align 4
  store ptr %0, ptr %3, align 8, !tbaa !3
  store i32 %1, ptr %4, align 4, !tbaa !8
  %5 = load ptr, ptr %3, align 8
  %6 = getelementptr inbounds nuw %"class.arrow_vendored::double_conversion::Bignum", ptr %5, i32 0, i32 2
  %7 = load i32, ptr %4, align 4, !tbaa !8
  %8 = sext i32 %7 to i64
  %9 = getelementptr inbounds [128 x i32], ptr %6, i64 0, i64 %8
  ret ptr %9
}

; Function Attrs: mustprogress nounwind uwtable
define linkonce_odr void @_ZN14arrow_vendored17double_conversion6Bignum4ZeroEv(ptr noundef nonnull align 4 dereferenceable(516) %0) #0 comdat align 2 {
  %2 = alloca ptr, align 8
  store ptr %0, ptr %2, align 8, !tbaa !3
  %3 = load ptr, ptr %2, align 8
  %4 = getelementptr inbounds nuw %"class.arrow_vendored::double_conversion::Bignum", ptr %3, i32 0, i32 0
  store i16 0, ptr %4, align 4, !tbaa !12
  %5 = getelementptr inbounds nuw %"class.arrow_vendored::double_conversion::Bignum", ptr %3, i32 0, i32 1
  store i16 0, ptr %5, align 2, !tbaa !14
  ret void
}

; Function Attrs: mustprogress uwtable
define void @_ZN14arrow_vendored17double_conversion6Bignum16MultiplyByUInt32Ej(ptr noundef nonnull align 4 dereferenceable(516) %0, i32 noundef %1) #1 align 2 {
  %3 = alloca ptr, align 8
  %4 = alloca i32, align 4
  %5 = alloca i64, align 8
  %6 = alloca i32, align 4
  %7 = alloca i64, align 8
  store ptr %0, ptr %3, align 8, !tbaa !3
  store i32 %1, ptr %4, align 4, !tbaa !8
  %8 = load ptr, ptr %3, align 8
  %9 = load i32, ptr %4, align 4, !tbaa !8
  %10 = icmp eq i32 %9, 1
  br i1 %10, label %11, label %12

11:                                               ; preds = %2
  br label %72

12:                                               ; preds = %2
  %13 = load i32, ptr %4, align 4, !tbaa !8
  %14 = icmp eq i32 %13, 0
  br i1 %14, label %15, label %16

15:                                               ; preds = %12
  call void @_ZN14arrow_vendored17double_conversion6Bignum4ZeroEv(ptr noundef nonnull align 4 dereferenceable(516) %8)
  br label %72

16:                                               ; preds = %12
  %17 = getelementptr inbounds nuw %"class.arrow_vendored::double_conversion::Bignum", ptr %8, i32 0, i32 0
  %18 = load i16, ptr %17, align 4, !tbaa !12
  %19 = sext i16 %18 to i32
  %20 = icmp eq i32 %19, 0
  br i1 %20, label %21, label %22

21:                                               ; preds = %16
  br label %72

22:                                               ; preds = %16
  call void @llvm.lifetime.start.p0(i64 8, ptr %5) #6
  store i64 0, ptr %5, align 8, !tbaa !15
  call void @llvm.lifetime.start.p0(i64 4, ptr %6) #6
  store i32 0, ptr %6, align 4, !tbaa !8
  br label %23

23:                                               ; preds = %47, %22
  %24 = load i32, ptr %6, align 4, !tbaa !8
  %25 = getelementptr inbounds nuw %"class.arrow_vendored::double_conversion::Bignum", ptr %8, i32 0, i32 0
  %26 = load i16, ptr %25, align 4, !tbaa !12
  %27 = sext i16 %26 to i32
  %28 = icmp slt i32 %24, %27
  br i1 %28, label %30, label %29

29:                                               ; preds = %23
  call void @llvm.lifetime.end.p0(i64 4, ptr %6) #6
  br label %50

30:                                               ; preds = %23
  call void @llvm.lifetime.start.p0(i64 8, ptr %7) #6
  %31 = load i32, ptr %4, align 4, !tbaa !8
  %32 = zext i32 %31 to i64
  %33 = load i32, ptr %6, align 4, !tbaa !8
  %34 = call noundef nonnull align 4 dereferenceable(4) ptr @_ZN14arrow_vendored17double_conversion6Bignum8RawBigitEi(ptr noundef nonnull align 4 dereferenceable(516) %8, i32 noundef %33)
  %35 = load i32, ptr %34, align 4, !tbaa !8
  %36 = zext i32 %35 to i64
  %37 = mul i64 %32, %36
  %38 = load i64, ptr %5, align 8, !tbaa !15
  %39 = add i64 %37, %38
  store i64 %39, ptr %7, align 8, !tbaa !15
  %40 = load i64, ptr %7, align 8, !tbaa !15
  %41 = and i64 %40, 268435455
  %42 = trunc i64 %41 to i32
  %43 = load i32, ptr %6, align 4, !tbaa !8
  %44 = call noundef nonnull align 4 dereferenceable(4) ptr @_ZN14arrow_vendored17double_conversion6Bignum8RawBigitEi(ptr noundef nonnull align 4 dereferenceable(516) %8, i32 noundef %43)
  store i32 %42, ptr %44, align 4, !tbaa !8
  %45 = load i64, ptr %7, align 8, !tbaa !15
  %46 = lshr i64 %45, 28
  store i64 %46, ptr %5, align 8, !tbaa !15
  call void @llvm.lifetime.end.p0(i64 8, ptr %7) #6
  br label %47

47:                                               ; preds = %30
  %48 = load i32, ptr %6, align 4, !tbaa !8
  %49 = add nsw i32 %48, 1
  store i32 %49, ptr %6, align 4, !tbaa !8
  br label %23, !llvm.loop !45

50:                                               ; preds = %29
  br label %51

51:                                               ; preds = %54, %50
  %52 = load i64, ptr %5, align 8, !tbaa !15
  %53 = icmp ne i64 %52, 0
  br i1 %53, label %54, label %71

54:                                               ; preds = %51
  %55 = getelementptr inbounds nuw %"class.arrow_vendored::double_conversion::Bignum", ptr %8, i32 0, i32 0
  %56 = load i16, ptr %55, align 4, !tbaa !12
  %57 = sext i16 %56 to i32
  %58 = add nsw i32 %57, 1
  call void @_ZN14arrow_vendored17double_conversion6Bignum14EnsureCapacityEi(i32 noundef %58)
  %59 = load i64, ptr %5, align 8, !tbaa !15
  %60 = and i64 %59, 268435455
  %61 = trunc i64 %60 to i32
  %62 = getelementptr inbounds nuw %"class.arrow_vendored::double_conversion::Bignum", ptr %8, i32 0, i32 0
  %63 = load i16, ptr %62, align 4, !tbaa !12
  %64 = sext i16 %63 to i32
  %65 = call noundef nonnull align 4 dereferenceable(4) ptr @_ZN14arrow_vendored17double_conversion6Bignum8RawBigitEi(ptr noundef nonnull align 4 dereferenceable(516) %8, i32 noundef %64)
  store i32 %61, ptr %65, align 4, !tbaa !8
  %66 = getelementptr inbounds nuw %"class.arrow_vendored::double_conversion::Bignum", ptr %8, i32 0, i32 0
  %67 = load i16, ptr %66, align 4, !tbaa !12
  %68 = add i16 %67, 1
  store i16 %68, ptr %66, align 4, !tbaa !12
  %69 = load i64, ptr %5, align 8, !tbaa !15
  %70 = lshr i64 %69, 28
  store i64 %70, ptr %5, align 8, !tbaa !15
  br label %51, !llvm.loop !46

71:                                               ; preds = %51
  call void @llvm.lifetime.end.p0(i64 8, ptr %5) #6
  br label %72

72:                                               ; preds = %71, %21, %15, %11
  ret void
}